; Function Attrs: nounwind uwtable
define range(i32 0, 2) i32 @ossl_ecdh_simple_compute_key(ptr noundef writeonly captures(none) %0, ptr noundef writeonly captures(none) %1, ptr noundef %2, ptr noundef %3) local_unnamed_addr #0 {
  %5 = getelementptr inbounds nuw i8, ptr %3, i64 80
  %6 = load ptr, ptr %5, align 8, !tbaa !26
  %7 = tail call ptr @BN_CTX_new_ex(ptr noundef %6) #3
  %8 = icmp eq ptr %7, null
  br i1 %8, label %59, label %9

9:                                                ; preds = %4
  tail call void @BN_CTX_start(ptr noundef nonnull %7) #3
  %10 = tail call ptr @BN_CTX_get(ptr noundef nonnull %7) #3
  %11 = icmp eq ptr %10, null
  br i1 %11, label %12, label %13

12:                                               ; preds = %9
  tail call void @ERR_new() #3
  tail call void @ERR_set_debug(ptr noundef nonnull @.str, i32 noundef 66, ptr noundef nonnull @__func__.ossl_ecdh_simple_compute_key) #3
  tail call void (i32, i32, ptr, ...) @ERR_set_error(i32 noundef 16, i32 noundef 524291, ptr noundef null) #3
  br label %59

13:                                               ; preds = %9
  %14 = tail call ptr @EC_KEY_get0_private_key(ptr noundef nonnull %3) #3
  %15 = icmp eq ptr %14, null
  br i1 %15, label %16, label %17

16:                                               ; preds = %13
  tail call void @ERR_new() #3
  tail call void @ERR_set_debug(ptr noundef nonnull @.str, i32 noundef 72, ptr noundef nonnull @__func__.ossl_ecdh_simple_compute_key) #3
  tail call void (i32, i32, ptr, ...) @ERR_set_error(i32 noundef 16, i32 noundef 125, ptr noundef null) #3
  br label %59

17:                                               ; preds = %13
  %18 = tail call ptr @EC_KEY_get0_group(ptr noundef nonnull %3) #3
  %19 = tail call i32 @EC_KEY_get_flags(ptr noundef nonnull %3) #3
  %20 = and i32 %19, 4096
  %.not = icmp eq i32 %20, 0
  br i1 %.not, label %27, label %21

21:                                               ; preds = %17
  %22 = tail call i32 @EC_GROUP_get_cofactor(ptr noundef %18, ptr noundef nonnull %10, ptr noundef null) #3
  %.not60 = icmp eq i32 %22, 0
  br i1 %.not60, label %23, label %24

23:                                               ; preds = %21
  tail call void @ERR_new() #3
  tail call void @ERR_set_debug(ptr noundef nonnull @.str, i32 noundef 84, ptr noundef nonnull @__func__.ossl_ecdh_simple_compute_key) #3
  tail call void (i32, i32, ptr, ...) @ERR_set_error(i32 noundef 16, i32 noundef 524304, ptr noundef null) #3
  br label %59

24:                                               ; preds = %21
  %25 = tail call i32 @BN_mul(ptr noundef nonnull %10, ptr noundef nonnull %10, ptr noundef nonnull %14, ptr noundef nonnull %7) #3
  %.not61 = icmp eq i32 %25, 0
  br i1 %.not61, label %26, label %27

26:                                               ; preds = %24
  tail call void @ERR_new() #3
  tail call void @ERR_set_debug(ptr noundef nonnull @.str, i32 noundef 88, ptr noundef nonnull @__func__.ossl_ecdh_simple_compute_key) #3
  tail call void (i32, i32, ptr, ...) @ERR_set_error(i32 noundef 16, i32 noundef 524291, ptr noundef null) #3
  br label %59

27:                                               ; preds = %24, %17
  %.050 = phi ptr [ %14, %17 ], [ %10, %24 ]
  %28 = tail call ptr @EC_POINT_new(ptr noundef %18) #3
  %29 = icmp eq ptr %28, null
  br i1 %29, label %30, label %31

30:                                               ; preds = %27
  tail call void @ERR_new() #3
  tail call void @ERR_set_debug(ptr noundef nonnull @.str, i32 noundef 95, ptr noundef nonnull @__func__.ossl_ecdh_simple_compute_key) #3
  tail call void (i32, i32, ptr, ...) @ERR_set_error(i32 noundef 16, i32 noundef 524304, ptr noundef null) #3
  br label %59

31:                                               ; preds = %27
  %32 = tail call i32 @EC_POINT_mul(ptr noundef %18, ptr noundef nonnull %28, ptr noundef null, ptr noundef %2, ptr noundef nonnull %.050, ptr noundef nonnull %7) #3
  %.not62 = icmp eq i32 %32, 0
  br i1 %.not62, label %33, label %34

33:                                               ; preds = %31
  tail call void @ERR_new() #3
  tail call void @ERR_set_debug(ptr noundef nonnull @.str, i32 noundef 100, ptr noundef nonnull @__func__.ossl_ecdh_simple_compute_key) #3
  tail call void (i32, i32, ptr, ...) @ERR_set_error(i32 noundef 16, i32 noundef 155, ptr noundef null) #3
  br label %59

34:                                               ; preds = %31
  %35 = tail call i32 @EC_POINT_get_affine_coordinates(ptr noundef %18, ptr noundef nonnull %28, ptr noundef nonnull %10, ptr noundef null, ptr noundef nonnull %7) #3
  %.not63 = icmp eq i32 %35, 0
  br i1 %.not63, label %36, label %37

36:                                               ; preds = %34
  tail call void @ERR_new() #3
  tail call void @ERR_set_debug(ptr noundef nonnull @.str, i32 noundef 110, ptr noundef nonnull @__func__.ossl_ecdh_simple_compute_key) #3
  tail call void (i32, i32, ptr, ...) @ERR_set_error(i32 noundef 16, i32 noundef 155, ptr noundef null) #3
  br label %59

37:                                               ; preds = %34
  %38 = tail call i32 @EC_GROUP_get_degree(ptr noundef %18) #3
  %39 = add nsw i32 %38, 7
  %40 = sdiv i32 %39, 8
  %41 = sext i32 %40 to i64
  %42 = tail call i32 @BN_num_bits(ptr noundef nonnull %10) #3
  %43 = add nsw i32 %42, 7
  %44 = sdiv i32 %43, 8
  %45 = sext i32 %44 to i64
  %46 = icmp ugt i32 %44, %40
  br i1 %46, label %47, label %48

47:                                               ; preds = %37
  tail call void @ERR_new() #3
  tail call void @ERR_set_debug(ptr noundef nonnull @.str, i32 noundef 121, ptr noundef nonnull @__func__.ossl_ecdh_simple_compute_key) #3
  tail call void (i32, i32, ptr, ...) @ERR_set_error(i32 noundef 16, i32 noundef 786691, ptr noundef null) #3
  br label %59

48:                                               ; preds = %37
  %49 = tail call noalias ptr @CRYPTO_malloc(i64 noundef %41, ptr noundef nonnull @.str, i32 noundef 124) #3
  %50 = icmp eq ptr %49, null
  br i1 %50, label %59, label %51

51:                                               ; preds = %48
  %52 = sub nsw i64 %41, %45
  tail call void @llvm.memset.p0.i64(ptr nonnull align 1 %49, i8 0, i64 %52, i1 false)
  %53 = getelementptr inbounds nuw i8, ptr %49, i64 %41
  %54 = sub nsw i64 0, %45
  %55 = getelementptr inbounds i8, ptr %53, i64 %54
  %56 = tail call i32 @BN_bn2bin(ptr noundef nonnull %10, ptr noundef nonnull %55) #3
  %.not64 = icmp eq i32 %44, %56
  br i1 %.not64, label %58, label %57

57:                                               ; preds = %51
  tail call void @ERR_new() #3
  tail call void @ERR_set_debug(ptr noundef nonnull @.str, i32 noundef 129, ptr noundef nonnull @__func__.ossl_ecdh_simple_compute_key) #3
  tail call void (i32, i32, ptr, ...) @ERR_set_error(i32 noundef 16, i32 noundef 524291, ptr noundef null) #3
  br label %59

58:                                               ; preds = %51
  store ptr %49, ptr %0, align 8, !tbaa !27
  store i64 %41, ptr %1, align 8, !tbaa !28
  br label %59

59:                                               ; preds = %48, %4, %58, %57, %47, %36, %33, %30, %26, %23, %16, %12
  %.049 = phi i32 [ 0, %4 ], [ 0, %12 ], [ 0, %16 ], [ 0, %30 ], [ 0, %47 ], [ 0, %48 ], [ 0, %57 ], [ 1, %58 ], [ 0, %36 ], [ 0, %33 ], [ 0, %26 ], [ 0, %23 ]
  %.048 = phi ptr [ null, %4 ], [ null, %12 ], [ %10, %16 ], [ %10, %30 ], [ %10, %47 ], [ %10, %48 ], [ %10, %57 ], [ %10, %58 ], [ %10, %36 ], [ %10, %33 ], [ %10, %26 ], [ %10, %23 ]
  %.047 = phi ptr [ null, %4 ], [ null, %12 ], [ null, %16 ], [ null, %30 ], [ %28, %47 ], [ %28, %48 ], [ %28, %57 ], [ %28, %58 ], [ %28, %36 ], [ %28, %33 ], [ null, %26 ], [ null, %23 ]
  %.0 = phi ptr [ null, %4 ], [ null, %12 ], [ null, %16 ], [ null, %30 ], [ null, %47 ], [ null, %48 ], [ %49, %57 ], [ null, %58 ], [ null, %36 ], [ null, %33 ], [ null, %26 ], [ null, %23 ]
  tail call void @BN_clear(ptr noundef %.048) #3
  tail call void @EC_POINT_clear_free(ptr noundef %.047) #3
  tail call void @BN_CTX_end(ptr noundef %7) #3
  tail call void @BN_CTX_free(ptr noundef %7) #3
  tail call void @CRYPTO_free(ptr noundef %.0, ptr noundef nonnull @.str, i32 noundef 145) #3
  ret i32 %.049
}